target datalayout = "e-m:e-p270:32:32-p271:32:32-p272:64:64-i64:64-i128:128-f80:128-n8:16:32:64-S128"
target triple = "x86_64-pc-linux-gnu"

%struct.AVFormatContext = type { ptr, ptr, ptr, ptr, ptr, i32, i32, ptr, i32, ptr, i32, ptr, ptr, i64, i64, i64, i32, i32, i32, i64, i64, ptr, i32, i32, ptr, i32, i32, i32, i32, ptr, i64, i32, i32, %struct.AVIOInterruptCB, i32, i32, i32, i32, i64, i32, i32, i32, i32, i32, i32, i32, i32, i32, i32, i32, i32, i64, i32, i32, i32, i32, i32, ptr, ptr, ptr, ptr, i32, ptr, ptr, ptr, ptr, i32, ptr, ptr, i64, ptr, ptr, ptr, i64 }
%struct.AVIOInterruptCB = type { ptr, ptr }
%struct.DASHContext = type { ptr, ptr, ptr, i32, i32, i32, i64, i64, i32, i32, i32, i32, ptr, i32, i64, i64, [100 x i8], i64, i64, [1024 x i8], ptr, ptr, ptr, ptr, ptr, ptr, ptr, i32, ptr, i32, i32, ptr, ptr, ptr, i32, i64, i32, ptr, i32, i32, i32, i32, i32, i32, i32, i32, i32, i32, i64, i64, i32, i64, i32, %struct.AVRational, %struct.AVRational, i64 }
%struct.AVRational = type { i32, i32 }
%struct.AVBPrint = type { ptr, i32, i32, i32, [1 x i8], [1000 x i8] }

@.str.99 = private unnamed_addr constant [5 x i8] c"%s%s\00", align 1
@.str.127 = private unnamed_addr constant [28 x i8] c"Out of memory for filename\0A\00", align 1

; Function Attrs: inlinehint nounwind uwtable
define internal i32 @av_bprint_is_complete(ptr noundef %0) #11 {
  %2 = alloca ptr, align 8
  store ptr %0, ptr %2, align 8, !tbaa !293
  %3 = load ptr, ptr %2, align 8, !tbaa !293
  %4 = getelementptr inbounds nuw %struct.AVBPrint, ptr %3, i32 0, i32 1
  %5 = load i32, ptr %4, align 8, !tbaa !295
  %6 = load ptr, ptr %2, align 8, !tbaa !293
  %7 = getelementptr inbounds nuw %struct.AVBPrint, ptr %6, i32 0, i32 2
  %8 = load i32, ptr %7, align 4, !tbaa !296
  %9 = icmp ult i32 %5, %8
  %10 = zext i1 %9 to i32
  ret i32 %10
}

; Function Attrs: nounwind uwtable
define internal i32 @dashenc_delete_segment_file(ptr noundef %0, ptr noundef %1) #0 {
  %3 = alloca i32, align 4
  %4 = alloca ptr, align 8
  %5 = alloca ptr, align 8
  %6 = alloca ptr, align 8
  %7 = alloca %struct.AVBPrint, align 8
  %8 = alloca i32, align 4
  store ptr %0, ptr %4, align 8, !tbaa !4
  store ptr %1, ptr %5, align 8, !tbaa !116
  call void @llvm.lifetime.start.p0(i64 8, ptr %6) #13
  %9 = load ptr, ptr %4, align 8, !tbaa !4
  %10 = getelementptr inbounds nuw %struct.AVFormatContext, ptr %9, i32 0, i32 3
  %11 = load ptr, ptr %10, align 8, !tbaa !9
  store ptr %11, ptr %6, align 8, !tbaa !26
  call void @llvm.lifetime.start.p0(i64 1024, ptr %7) #13
  call void @av_bprint_init(ptr noundef %7, i32 noundef 0, i32 noundef -1)
  %12 = load ptr, ptr %6, align 8, !tbaa !26
  %13 = getelementptr inbounds nuw %struct.DASHContext, ptr %12, i32 0, i32 19
  %14 = getelementptr inbounds [1024 x i8], ptr %13, i64 0, i64 0
  %15 = load ptr, ptr %5, align 8, !tbaa !116
  call void (ptr, ptr, ...) @av_bprintf(ptr noundef %7, ptr noundef @.str.99, ptr noundef %14, ptr noundef %15)
  %16 = call i32 @av_bprint_is_complete(ptr noundef %7)
  %17 = icmp ne i32 %16, 0
  br i1 %17, label %21, label %18

18:                                               ; preds = %2
  %19 = call i32 @av_bprint_finalize(ptr noundef %7, ptr noundef null)
  %20 = load ptr, ptr %4, align 8, !tbaa !4
  call void (ptr, i32, ptr, ...) @av_log(ptr noundef %20, i32 noundef 24, ptr noundef @.str.127)
  store i32 -12, ptr %3, align 4
  store i32 1, ptr %8, align 4
  br label %26

21:                                               ; preds = %2
  %22 = load ptr, ptr %4, align 8, !tbaa !4
  %23 = getelementptr inbounds nuw %struct.AVBPrint, ptr %7, i32 0, i32 0
  %24 = load ptr, ptr %23, align 8, !tbaa !291
  call void @dashenc_delete_file(ptr noundef %22, ptr noundef %24)
  %25 = call i32 @av_bprint_finalize(ptr noundef %7, ptr noundef null)
  store i32 0, ptr %3, align 4
  store i32 1, ptr %8, align 4
  br label %26

26:                                               ; preds = %21, %18
  call void @llvm.lifetime.end.p0(i64 1024, ptr %7) #13
  call void @llvm.lifetime.end.p0(i64 8, ptr %6) #13
  %27 = load i32, ptr %3, align 4
  ret i32 %27
}