; Function Attrs: nounwind uwtable
define internal fastcc void @dashenc_delete_segment_file(ptr noundef %0, ptr noundef %1) unnamed_addr #0 {
  %3 = alloca %struct.AVBPrint, align 8
  %4 = getelementptr inbounds nuw i8, ptr %0, i64 24
  %5 = load ptr, ptr %4, align 8, !tbaa !24
  call void @llvm.lifetime.start.p0(i64 1024, ptr nonnull %3) #15
  call void @av_bprint_init(ptr noundef nonnull %3, i32 noundef 0, i32 noundef -1) #15
  %6 = getelementptr inbounds nuw i8, ptr %5, i64 224
  call void (ptr, ptr, ...) @av_bprintf(ptr noundef nonnull %3, ptr noundef nonnull @.str.99, ptr noundef nonnull %6, ptr noundef %1) #15
  %7 = getelementptr inbounds nuw i8, ptr %3, i64 8
  %.val = load i32, ptr %7, align 8, !tbaa !126
  %8 = getelementptr inbounds nuw i8, ptr %3, i64 12
  %.val5 = load i32, ptr %8, align 4, !tbaa !128
  %.not = icmp ult i32 %.val, %.val5
  br i1 %.not, label %11, label %9

9:                                                ; preds = %2
  %10 = call i32 @av_bprint_finalize(ptr noundef nonnull %3, ptr noundef null) #15
  call void (ptr, i32, ptr, ...) @av_log(ptr noundef nonnull %0, i32 noundef 24, ptr noundef nonnull @.str.127) #15
  br label %14

11:                                               ; preds = %2
  %12 = load ptr, ptr %3, align 8, !tbaa !129
  call fastcc void @dashenc_delete_file(ptr noundef nonnull %0, ptr noundef %12)
  %13 = call i32 @av_bprint_finalize(ptr noundef nonnull %3, ptr noundef null) #15
  br label %14

14:                                               ; preds = %11, %9
  call void @llvm.lifetime.end.p0(i64 1024, ptr nonnull %3) #15
  ret void
}